target datalayout = "e-m:e-p270:32:32-p271:32:32-p272:64:64-i64:64-i128:128-f80:128-n8:16:32:64-S128"
target triple = "x86_64-pc-linux-gnu"

%struct.WOLFSSL_BUFFER_INFO = type { ptr, i32 }
%struct.WOLFSSL = type <{ ptr, ptr, ptr, ptr, [48 x i8], [48 x i8], ptr, ptr, ptr, ptr, ptr, ptr, ptr, ptr, ptr, ptr, ptr, ptr, ptr, i32, [4 x i8], %struct.WOLFSSL_CIPHER, ptr, %struct.Ciphers, %struct.Ciphers, [8 x i8], %struct.Buffers, ptr, ptr, %struct.WOLFSSL_ALERT_HISTORY, %struct.WOLFSSL_ALERT, i32, i32, i32, i32, i32, i32, i32, i16, [2 x i8], i32, i8, %struct.RecordLayerHeader, %struct.MsgsReceived, %struct.ProtocolVersion, %struct.ProtocolVersion, %struct.CipherSpecs, [2 x i8], %struct.Keys, %struct.Options, ptr, i8, i8, i16, [10 x i16], i8, i8, i16, i16, [38 x i8], i32, i32, [4 x i8], ptr, i8, i8, [6 x i8], ptr, ptr, i16, i8, i8, i32, i8, [3 x i8], i32, %struct.OneTimeAuth, ptr }>
%struct.WOLFSSL_CIPHER = type { i8, i8, ptr }
%struct.Ciphers = type { ptr, ptr, ptr, ptr, i8, i8 }
%struct.Buffers = type { %struct.bufferStatic, %struct.bufferStatic, %struct.WOLFSSL_BUFFER_INFO, %struct.WOLFSSL_BUFFER_INFO, %struct.WOLFSSL_BUFFER_INFO, %struct.WOLFSSL_BUFFER_INFO, i32, i32, i8, i8, i8, i8, %struct.WOLFSSL_BUFFER_INFO, %struct.WOLFSSL_BUFFER_INFO, %struct.WOLFSSL_BUFFER_INFO, %struct.WOLFSSL_BUFFER_INFO, ptr, ptr, ptr, i8, i8, i32, i32, ptr, i32, [1 x ptr] }
%struct.bufferStatic = type { [5 x i8], ptr, i32, i32, i32, i8, i8 }
%struct.WOLFSSL_ALERT_HISTORY = type { %struct.WOLFSSL_ALERT, %struct.WOLFSSL_ALERT }
%struct.WOLFSSL_ALERT = type { i32, i32 }
%struct.RecordLayerHeader = type { i8, i8, i8, [2 x i8] }
%struct.MsgsReceived = type { i32 }
%struct.ProtocolVersion = type { i8, i8 }
%struct.CipherSpecs = type { i16, i16, i16, i16, i8, i8, i8, i8, i8, i8, i8, i8 }
%struct.Keys = type { [64 x i8], [64 x i8], [32 x i8], [32 x i8], [16 x i8], [16 x i8], [8 x i8], [12 x i8], [12 x i8], i32, i32, i32, i32, i32, i32, i8, i8, i8, i8 }
%struct.Options = type { i64, i64, i8, i8, i8, i8, i8, i8, i8, i8, i8, i8, i8, i8, i8, i8, i8, i8, i8, i8, i8, i8, i8, i16, i16, i16, i16, i16, i8 }
%struct.OneTimeAuth = type { ptr, i8 }

; Function Attrs: nounwind uwtable
define i32 @wolfSSL_version(ptr noundef %0) #0 {
  %2 = alloca i32, align 4
  %3 = alloca ptr, align 8
  store ptr %0, ptr %3, align 8, !tbaa !61
  br label %4

4:                                                ; preds = %1
  br label %5

5:                                                ; preds = %4
  %6 = load ptr, ptr %3, align 8, !tbaa !61
  %7 = getelementptr inbounds nuw %struct.WOLFSSL, ptr %6, i32 0, i32 44
  %8 = getelementptr inbounds nuw %struct.ProtocolVersion, ptr %7, i32 0, i32 0
  %9 = load i8, ptr %8, align 2, !tbaa !196
  %10 = zext i8 %9 to i32
  %11 = icmp eq i32 %10, 3
  br i1 %11, label %12, label %24

12:                                               ; preds = %5
  %13 = load ptr, ptr %3, align 8, !tbaa !61
  %14 = getelementptr inbounds nuw %struct.WOLFSSL, ptr %13, i32 0, i32 44
  %15 = getelementptr inbounds nuw %struct.ProtocolVersion, ptr %14, i32 0, i32 1
  %16 = load i8, ptr %15, align 1, !tbaa !197
  %17 = zext i8 %16 to i32
  switch i32 %17, label %23 [
    i32 0, label %18
    i32 1, label %19
    i32 2, label %20
    i32 3, label %21
    i32 4, label %22
  ]

18:                                               ; preds = %12
  store i32 768, ptr %2, align 4
  br label %43

19:                                               ; preds = %12
  store i32 769, ptr %2, align 4
  br label %43

20:                                               ; preds = %12
  store i32 770, ptr %2, align 4
  br label %43

21:                                               ; preds = %12
  store i32 771, ptr %2, align 4
  br label %43

22:                                               ; preds = %12
  store i32 772, ptr %2, align 4
  br label %43

23:                                               ; preds = %12
  store i32 0, ptr %2, align 4
  br label %43

24:                                               ; preds = %5
  %25 = load ptr, ptr %3, align 8, !tbaa !61
  %26 = getelementptr inbounds nuw %struct.WOLFSSL, ptr %25, i32 0, i32 44
  %27 = getelementptr inbounds nuw %struct.ProtocolVersion, ptr %26, i32 0, i32 0
  %28 = load i8, ptr %27, align 2, !tbaa !196
  %29 = zext i8 %28 to i32
  %30 = icmp eq i32 %29, 254
  br i1 %30, label %31, label %41

31:                                               ; preds = %24
  %32 = load ptr, ptr %3, align 8, !tbaa !61
  %33 = getelementptr inbounds nuw %struct.WOLFSSL, ptr %32, i32 0, i32 44
  %34 = getelementptr inbounds nuw %struct.ProtocolVersion, ptr %33, i32 0, i32 1
  %35 = load i8, ptr %34, align 1, !tbaa !197
  %36 = zext i8 %35 to i32
  switch i32 %36, label %40 [
    i32 255, label %37
    i32 253, label %38
    i32 252, label %39
  ]

37:                                               ; preds = %31
  store i32 65279, ptr %2, align 4
  br label %43

38:                                               ; preds = %31
  store i32 65277, ptr %2, align 4
  br label %43

39:                                               ; preds = %31
  store i32 65276, ptr %2, align 4
  br label %43

40:                                               ; preds = %31
  store i32 0, ptr %2, align 4
  br label %43

41:                                               ; preds = %24
  br label %42

42:                                               ; preds = %41
  store i32 0, ptr %2, align 4
  br label %43

43:                                               ; preds = %42, %40, %39, %38, %37, %23, %22, %21, %20, %19, %18
  %44 = load i32, ptr %2, align 4
  ret i32 %44
}