; Function Attrs: mustprogress nofree norecurse nosync nounwind willreturn memory(argmem: read) uwtable
define range(i32 0, 65280) i32 @wolfSSL_version(ptr noundef readonly captures(none) %0) local_unnamed_addr #9 {
  %2 = getelementptr inbounds nuw i8, ptr %0, i64 710
  %3 = load i8, ptr %2, align 2, !tbaa !173
  switch i8 %3, label %13 [
    i8 3, label %4
    i8 -2, label %8
  ]

4:                                                ; preds = %1
  %5 = getelementptr inbounds nuw i8, ptr %0, i64 711
  %6 = load i8, ptr %5, align 1, !tbaa !174
  %7 = icmp ult i8 %6, 5
  br i1 %7, label %switch.lookup, label %13

8:                                                ; preds = %1
  %9 = getelementptr inbounds nuw i8, ptr %0, i64 711
  %10 = load i8, ptr %9, align 1, !tbaa !174
  %11 = icmp ugt i8 %10, -5
  br i1 %11, label %switch.lookup5, label %13

switch.lookup:                                    ; preds = %4
  %switch.idx.cast = zext nneg i8 %6 to i32
  %switch.offset = or disjoint i32 %switch.idx.cast, 768
  br label %13

switch.lookup5:                                   ; preds = %8
  %switch.tableidx = add nsw i8 %10, 4
  %12 = zext nneg i8 %switch.tableidx to i64
  %switch.gep = getelementptr inbounds nuw [4 x i32], ptr @switch.table.wolfSSL_version, i64 0, i64 %12
  %switch.load = load i32, ptr %switch.gep, align 4
  br label %13

13:                                               ; preds = %8, %switch.lookup5, %4, %switch.lookup, %1
  %.0 = phi i32 [ 0, %1 ], [ %switch.offset, %switch.lookup ], [ 0, %4 ], [ %switch.load, %switch.lookup5 ], [ 0, %8 ]
  ret i32 %.0
}